target datalayout = "e-m:e-p270:32:32-p271:32:32-p272:64:64-i64:64-i128:128-f80:128-n8:16:32:64-S128"
target triple = "x86_64-unknown-linux-gnu"

%class.model_converter = type <{ %class.converter.base, [4 x i8], ptr, i8, [7 x i8] }>
%class.converter.base = type <{ ptr, i32 }>
%class.vector.77 = type { ptr }
%class.ref = type { ptr }
%class.model_core = type { ptr, ptr, i32, [4 x i8], %class.obj_map.79, %class.obj_map.84, %class.ptr_vector.89, %class.ptr_vector.89, %class.ptr_vector.89 }
%class.obj_map.79 = type { %class.core_hashtable.80 }
%class.core_hashtable.80 = type <{ ptr, i32, i32, i32, [4 x i8] }>
%class.obj_map.84 = type { %class.core_hashtable.85 }
%class.core_hashtable.85 = type <{ ptr, i32, i32, i32, [4 x i8] }>
%class.ptr_vector.89 = type { %class.vector.77 }
%class.model_converter.base = type <{ %class.converter.base, [4 x i8], ptr, i8 }>
%class.model2mc = type { %class.model_converter.base, %class.ref, %class.labels_vec }
%class.labels_vec = type { %class.svector.48 }
%class.svector.48 = type { %class.vector.49 }
%class.vector.49 = type { ptr }
%class.converter = type <{ ptr, i32, [4 x i8] }>

@_ZTV9converter = linkonce_odr hidden unnamed_addr constant { [6 x ptr] } { [6 x ptr] [ptr null, ptr @_ZTI9converter, ptr @_ZN9converterD2Ev, ptr @_ZN9converterD0Ev, ptr @_ZN9converter6cancelEv, ptr @__cxa_pure_virtual] }, comdat, align 8

; Function Attrs: mustprogress uwtable
define linkonce_odr hidden void @_Z7deallocI10model_coreEvPT_(ptr noundef %ptr) #4 comdat {
entry:
  %ptr.addr = alloca ptr, align 8
  store ptr %ptr, ptr %ptr.addr, align 8
  %0 = load ptr, ptr %ptr.addr, align 8
  %cmp = icmp eq ptr %0, null
  br i1 %cmp, label %if.then, label %if.end

if.then:                                          ; preds = %entry
  br label %return

if.end:                                           ; preds = %entry
  %1 = load ptr, ptr %ptr.addr, align 8
  %vtable = load ptr, ptr %1, align 8
  %vfn = getelementptr inbounds ptr, ptr %vtable, i64 0
  %2 = load ptr, ptr %vfn, align 8
  call void %2(ptr noundef nonnull align 8 dereferenceable(96) %1) #3
  %3 = load ptr, ptr %ptr.addr, align 8
  call void @_ZN6memory10deallocateEPv(ptr noundef %3)
  br label %return

return:                                           ; preds = %if.end, %if.then
  ret void
}

; Function Attrs: mustprogress uwtable
define linkonce_odr hidden void @_ZN10model_core7dec_refEv(ptr noundef nonnull align 8 dereferenceable(96) %this) #4 comdat align 2 {
entry:
  %this.addr = alloca ptr, align 8
  store ptr %this, ptr %this.addr, align 8
  %this1 = load ptr, ptr %this.addr, align 8
  %m_ref_count = getelementptr inbounds %class.model_core, ptr %this1, i32 0, i32 2
  %0 = load i32, ptr %m_ref_count, align 8
  %dec = add i32 %0, -1
  store i32 %dec, ptr %m_ref_count, align 8
  %m_ref_count2 = getelementptr inbounds %class.model_core, ptr %this1, i32 0, i32 2
  %1 = load i32, ptr %m_ref_count2, align 8
  %cmp = icmp eq i32 %1, 0
  br i1 %cmp, label %if.then, label %if.end

if.then:                                          ; preds = %entry
  call void @_Z7deallocI10model_coreEvPT_(ptr noundef %this1)
  br label %if.end

if.end:                                           ; preds = %if.then, %entry
  ret void
}

; Function Attrs: mustprogress nounwind uwtable
define linkonce_odr hidden void @_ZN6vectorI6symbolLb0EjEC2Ev(ptr noundef nonnull align 8 dereferenceable(8) %this) unnamed_addr #5 comdat align 2 {
entry:
  %this.addr = alloca ptr, align 8
  store ptr %this, ptr %this.addr, align 8
  %this1 = load ptr, ptr %this.addr, align 8
  %m_data = getelementptr inbounds %class.vector.49, ptr %this1, i32 0, i32 0
  store ptr null, ptr %m_data, align 8
  ret void
}

; Function Attrs: mustprogress nounwind uwtable
define linkonce_odr hidden void @_ZN10model_core7inc_refEv(ptr noundef nonnull align 8 dereferenceable(96) %this) #5 comdat align 2 {
entry:
  %this.addr = alloca ptr, align 8
  store ptr %this, ptr %this.addr, align 8
  %this1 = load ptr, ptr %this.addr, align 8
  %m_ref_count = getelementptr inbounds %class.model_core, ptr %this1, i32 0, i32 2
  %0 = load i32, ptr %m_ref_count, align 8
  %inc = add i32 %0, 1
  store i32 %inc, ptr %m_ref_count, align 8
  ret void
}

; Function Attrs: mustprogress nounwind uwtable
define linkonce_odr hidden void @_ZN9converterD2Ev(ptr noundef nonnull align 8 dereferenceable(12) %this) unnamed_addr #5 comdat align 2 {
entry:
  %this.addr = alloca ptr, align 8
  store ptr %this, ptr %this.addr, align 8
  ret void
}

; Function Attrs: noreturn nounwind uwtable
define linkonce_odr hidden void @__clang_call_terminate(ptr noundef %0) #9 comdat {
  %2 = call ptr @__cxa_begin_catch(ptr %0) #3
  call void @_ZSt9terminatev() #14
  unreachable
}

; Function Attrs: mustprogress uwtable
define linkonce_odr hidden void @_ZN3refI5modelE7dec_refEv(ptr noundef nonnull align 8 dereferenceable(8) %this) #4 comdat align 2 {
entry:
  %this.addr = alloca ptr, align 8
  store ptr %this, ptr %this.addr, align 8
  %this1 = load ptr, ptr %this.addr, align 8
  %m_ptr = getelementptr inbounds %class.ref, ptr %this1, i32 0, i32 0
  %0 = load ptr, ptr %m_ptr, align 8
  %tobool = icmp ne ptr %0, null
  br i1 %tobool, label %if.then, label %if.end

if.then:                                          ; preds = %entry
  %m_ptr2 = getelementptr inbounds %class.ref, ptr %this1, i32 0, i32 0
  %1 = load ptr, ptr %m_ptr2, align 8
  call void @_ZN10model_core7dec_refEv(ptr noundef nonnull align 8 dereferenceable(96) %1)
  br label %if.end

if.end:                                           ; preds = %if.then, %entry
  ret void
}

; Function Attrs: mustprogress nounwind uwtable
define linkonce_odr hidden void @_ZN7svectorI6symboljEC2Ev(ptr noundef nonnull align 8 dereferenceable(8) %this) unnamed_addr #5 comdat align 2 {
entry:
  %this.addr = alloca ptr, align 8
  store ptr %this, ptr %this.addr, align 8
  %this1 = load ptr, ptr %this.addr, align 8
  %0 = getelementptr inbounds i8, ptr %this1, i64 0
  call void @llvm.memset.p0.i64(ptr align 8 %0, i8 0, i64 8, i1 false)
  call void @_ZN6vectorI6symbolLb0EjEC2Ev(ptr noundef nonnull align 8 dereferenceable(8) %this1) #3
  ret void
}

; Function Attrs: mustprogress uwtable
define linkonce_odr hidden void @_ZN3refI5modelE7inc_refEv(ptr noundef nonnull align 8 dereferenceable(8) %this) #4 comdat align 2 {
entry:
  %this.addr = alloca ptr, align 8
  store ptr %this, ptr %this.addr, align 8
  %this1 = load ptr, ptr %this.addr, align 8
  %m_ptr = getelementptr inbounds %class.ref, ptr %this1, i32 0, i32 0
  %0 = load ptr, ptr %m_ptr, align 8
  %tobool = icmp ne ptr %0, null
  br i1 %tobool, label %if.then, label %if.end

if.then:                                          ; preds = %entry
  %m_ptr2 = getelementptr inbounds %class.ref, ptr %this1, i32 0, i32 0
  %1 = load ptr, ptr %m_ptr2, align 8
  call void @_ZN10model_core7inc_refEv(ptr noundef nonnull align 8 dereferenceable(96) %1)
  br label %if.end

if.end:                                           ; preds = %if.then, %entry
  ret void
}

; Function Attrs: mustprogress nounwind uwtable
define linkonce_odr hidden void @_ZN9converterC2Ev(ptr noundef nonnull align 8 dereferenceable(12) %this) unnamed_addr #5 comdat align 2 {
entry:
  %this.addr = alloca ptr, align 8
  store ptr %this, ptr %this.addr, align 8
  %this1 = load ptr, ptr %this.addr, align 8
  store ptr getelementptr inbounds ({ [6 x ptr] }, ptr @_ZTV9converter, i32 0, i32 0, i32 2), ptr %this1, align 8
  %m_ref_count = getelementptr inbounds %class.converter, ptr %this1, i32 0, i32 1
  store i32 0, ptr %m_ref_count, align 8
  ret void
}

; Function Attrs: mustprogress nounwind uwtable
define linkonce_odr hidden void @_ZN15model_converterD2Ev(ptr noundef nonnull align 8 dereferenceable(25) %this) unnamed_addr #5 comdat align 2 {
entry:
  %this.addr = alloca ptr, align 8
  store ptr %this, ptr %this.addr, align 8
  %this1 = load ptr, ptr %this.addr, align 8
  call void @_ZN9converterD2Ev(ptr noundef nonnull align 8 dereferenceable(12) %this1) #3
  ret void
}

; Function Attrs: mustprogress nounwind uwtable
define linkonce_odr hidden void @_ZN3refI5modelED2Ev(ptr noundef nonnull align 8 dereferenceable(8) %this) unnamed_addr #5 comdat align 2 personality ptr @__gxx_personality_v0 {
entry:
  %this.addr = alloca ptr, align 8
  store ptr %this, ptr %this.addr, align 8
  %this1 = load ptr, ptr %this.addr, align 8
  invoke void @_ZN3refI5modelE7dec_refEv(ptr noundef nonnull align 8 dereferenceable(8) %this1)
          to label %invoke.cont unwind label %terminate.lpad

invoke.cont:                                      ; preds = %entry
  ret void

terminate.lpad:                                   ; preds = %entry
  %0 = landingpad { ptr, i32 }
          catch ptr null
  %1 = extractvalue { ptr, i32 } %0, 0
  call void @__clang_call_terminate(ptr %1) #14
  unreachable
}

; Function Attrs: mustprogress uwtable
define linkonce_odr hidden void @_ZN10labels_vecC2Ev(ptr noundef nonnull align 8 dereferenceable(8) %this) unnamed_addr #4 comdat align 2 {
entry:
  %this.addr = alloca ptr, align 8
  store ptr %this, ptr %this.addr, align 8
  %this1 = load ptr, ptr %this.addr, align 8
  call void @_ZN7svectorI6symboljEC2Ev(ptr noundef nonnull align 8 dereferenceable(8) %this1)
  ret void
}

; Function Attrs: mustprogress uwtable
define linkonce_odr hidden void @_ZN3refI5modelEC2EPS0_(ptr noundef nonnull align 8 dereferenceable(8) %this, ptr noundef %ptr) unnamed_addr #4 comdat align 2 {
entry:
  %this.addr = alloca ptr, align 8
  %ptr.addr = alloca ptr, align 8
  store ptr %this, ptr %this.addr, align 8
  store ptr %ptr, ptr %ptr.addr, align 8
  %this1 = load ptr, ptr %this.addr, align 8
  %m_ptr = getelementptr inbounds %class.ref, ptr %this1, i32 0, i32 0
  %0 = load ptr, ptr %ptr.addr, align 8
  store ptr %0, ptr %m_ptr, align 8
  call void @_ZN3refI5modelE7inc_refEv(ptr noundef nonnull align 8 dereferenceable(8) %this1)
  ret void
}

; Function Attrs: mustprogress uwtable
define linkonce_odr hidden void @_ZN15model_converterC2Ev(ptr noundef nonnull align 8 dereferenceable(25) %this) unnamed_addr #4 comdat align 2 {
entry:
  %this.addr = alloca ptr, align 8
  store ptr %this, ptr %this.addr, align 8
  %this1 = load ptr, ptr %this.addr, align 8
  call void @_ZN9converterC2Ev(ptr noundef nonnull align 8 dereferenceable(12) %this1)
  store ptr getelementptr inbounds ({ [12 x ptr] }, ptr @_ZTV15model_converter, i32 0, i32 0, i32 2), ptr %this1, align 8
  %m_env = getelementptr inbounds %class.model_converter, ptr %this1, i32 0, i32 2
  store ptr null, ptr %m_env, align 8
  %m_completion = getelementptr inbounds %class.model_converter, ptr %this1, i32 0, i32 3
  store i8 1, ptr %m_completion, align 8
  ret void
}

; Function Attrs: mustprogress uwtable
define linkonce_odr hidden void @_ZN8model2mcC2EP5model(ptr noundef nonnull align 8 dereferenceable(48) %this, ptr noundef %m) unnamed_addr #4 comdat align 2 personality ptr @__gxx_personality_v0 {
entry:
  %this.addr = alloca ptr, align 8
  %m.addr = alloca ptr, align 8
  %exn.slot = alloca ptr, align 8
  %ehselector.slot = alloca i32, align 4
  store ptr %this, ptr %this.addr, align 8
  store ptr %m, ptr %m.addr, align 8
  %this1 = load ptr, ptr %this.addr, align 8
  call void @_ZN15model_converterC2Ev(ptr noundef nonnull align 8 dereferenceable(25) %this1)
  store ptr getelementptr inbounds ({ [12 x ptr] }, ptr @_ZTV8model2mc, i32 0, i32 0, i32 2), ptr %this1, align 8
  %m_model = getelementptr inbounds %class.model2mc, ptr %this1, i32 0, i32 1
  %0 = load ptr, ptr %m.addr, align 8
  invoke void @_ZN3refI5modelEC2EPS0_(ptr noundef nonnull align 8 dereferenceable(8) %m_model, ptr noundef %0)
          to label %invoke.cont unwind label %lpad

invoke.cont:                                      ; preds = %entry
  %m_labels = getelementptr inbounds %class.model2mc, ptr %this1, i32 0, i32 2
  invoke void @_ZN10labels_vecC2Ev(ptr noundef nonnull align 8 dereferenceable(8) %m_labels)
          to label %invoke.cont3 unwind label %lpad2

invoke.cont3:                                     ; preds = %invoke.cont
  ret void

lpad:                                             ; preds = %entry
  %1 = landingpad { ptr, i32 }
          cleanup
  %2 = extractvalue { ptr, i32 } %1, 0
  store ptr %2, ptr %exn.slot, align 8
  %3 = extractvalue { ptr, i32 } %1, 1
  store i32 %3, ptr %ehselector.slot, align 4
  br label %ehcleanup

lpad2:                                            ; preds = %invoke.cont
  %4 = landingpad { ptr, i32 }
          cleanup
  %5 = extractvalue { ptr, i32 } %4, 0
  store ptr %5, ptr %exn.slot, align 8
  %6 = extractvalue { ptr, i32 } %4, 1
  store i32 %6, ptr %ehselector.slot, align 4
  call void @_ZN3refI5modelED2Ev(ptr noundef nonnull align 8 dereferenceable(8) %m_model) #3
  br label %ehcleanup

ehcleanup:                                        ; preds = %lpad2, %lpad
  call void @_ZN15model_converterD2Ev(ptr noundef nonnull align 8 dereferenceable(25) %this1) #3
  br label %eh.resume

eh.resume:                                        ; preds = %ehcleanup
  %exn = load ptr, ptr %exn.slot, align 8
  %sel = load i32, ptr %ehselector.slot, align 4
  %lpad.val = insertvalue { ptr, i32 } poison, ptr %exn, 0
  %lpad.val4 = insertvalue { ptr, i32 } %lpad.val, i32 %sel, 1
  resume { ptr, i32 } %lpad.val4
}

; Function Attrs: mustprogress uwtable
define hidden noundef ptr @_Z21model2model_converterP5model(ptr noundef %m) #4 {
entry:
  %retval = alloca ptr, align 8
  %m.addr = alloca ptr, align 8
  store ptr %m, ptr %m.addr, align 8
  %0 = load ptr, ptr %m.addr, align 8
  %tobool = icmp ne ptr %0, null
  br i1 %tobool, label %if.end, label %if.then

if.then:                                          ; preds = %entry
  store ptr null, ptr %retval, align 8
  br label %return

if.end:                                           ; preds = %entry
  %call = call noalias noundef ptr @_ZN6memory8allocateEm(i64 noundef 48)
  %1 = load ptr, ptr %m.addr, align 8
  call void @_ZN8model2mcC2EP5model(ptr noundef nonnull align 8 dereferenceable(48) %call, ptr noundef %1)
  store ptr %call, ptr %retval, align 8
  br label %return

return:                                           ; preds = %if.end, %if.then
  %2 = load ptr, ptr %retval, align 8
  ret ptr %2
}