; Function Attrs: mustprogress uwtable
define hidden noalias noundef ptr @_Z21model2model_converterP5model(ptr noundef %m) local_unnamed_addr #3 personality ptr @__gxx_personality_v0 {
entry:
  %tobool.not = icmp eq ptr %m, null
  br i1 %tobool.not, label %return, label %_ZN8model2mcC2EP5model.exit

_ZN8model2mcC2EP5model.exit:                      ; preds = %entry
  %call = tail call noalias noundef ptr @_ZN6memory8allocateEm(i64 noundef 48)
  %m_ref_count.i.i.i = getelementptr inbounds i8, ptr %call, i64 8
  store i32 0, ptr %m_ref_count.i.i.i, align 8
  %m_env.i.i = getelementptr inbounds i8, ptr %call, i64 16
  store ptr null, ptr %m_env.i.i, align 8
  %m_completion.i.i = getelementptr inbounds i8, ptr %call, i64 24
  store i8 1, ptr %m_completion.i.i, align 8
  store ptr getelementptr inbounds ({ [12 x ptr] }, ptr @_ZTV8model2mc, i64 0, i32 0, i64 2), ptr %call, align 8
  %m_model.i = getelementptr inbounds i8, ptr %call, i64 32
  store ptr %m, ptr %m_model.i, align 8
  %m_ref_count.i.i.i.i = getelementptr inbounds i8, ptr %m, i64 16
  %0 = load i32, ptr %m_ref_count.i.i.i.i, align 8
  %inc.i.i.i.i = add i32 %0, 1
  store i32 %inc.i.i.i.i, ptr %m_ref_count.i.i.i.i, align 8
  %m_labels.i = getelementptr inbounds i8, ptr %call, i64 40
  store ptr null, ptr %m_labels.i, align 8
  br label %return

return:                                           ; preds = %entry, %_ZN8model2mcC2EP5model.exit
  %retval.0 = phi ptr [ %call, %_ZN8model2mcC2EP5model.exit ], [ null, %entry ]
  ret ptr %retval.0
}